; Function Attrs: nounwind uwtable
define void @Abc_FrameSetJsonStrs(ptr noundef %0) local_unnamed_addr #1 {
  %2 = load ptr, ptr @s_GlobalFrame, align 8, !tbaa !3
  %3 = getelementptr inbounds nuw i8, ptr %2, i64 552
  %4 = load ptr, ptr %3, align 8, !tbaa !46
  tail call void @Abc_NamDeref(ptr noundef %4) #20
  %5 = load ptr, ptr @s_GlobalFrame, align 8, !tbaa !3
  %6 = getelementptr inbounds nuw i8, ptr %5, i64 552
  store ptr %0, ptr %6, align 8, !tbaa !46
  ret void
}